target datalayout = "e-m:e-p270:32:32-p271:32:32-p272:64:64-i64:64-i128:128-f80:128-n8:16:32:64-S128"
target triple = "x86_64-pc-linux-gnu"

; Function Attrs: inlinehint nounwind uwtable
define internal i64 @mi_bitmap_mask_(i64 noundef %0, i64 noundef %1) #0 {
  %3 = alloca i64, align 8
  %4 = alloca i64, align 8
  %5 = alloca i64, align 8
  store i64 %0, ptr %4, align 8, !tbaa !7
  store i64 %1, ptr %5, align 8, !tbaa !7
  %6 = load i64, ptr %4, align 8, !tbaa !7
  %7 = icmp uge i64 %6, 64
  br i1 %7, label %8, label %9

8:                                                ; preds = %2
  store i64 -1, ptr %3, align 8
  br label %19

9:                                                ; preds = %2
  %10 = load i64, ptr %4, align 8, !tbaa !7
  %11 = icmp eq i64 %10, 0
  br i1 %11, label %12, label %13

12:                                               ; preds = %9
  store i64 0, ptr %3, align 8
  br label %19

13:                                               ; preds = %9
  %14 = load i64, ptr %4, align 8, !tbaa !7
  %15 = shl i64 1, %14
  %16 = sub i64 %15, 1
  %17 = load i64, ptr %5, align 8, !tbaa !7
  %18 = shl i64 %16, %17
  store i64 %18, ptr %3, align 8
  br label %19

19:                                               ; preds = %13, %12, %8
  %20 = load i64, ptr %3, align 8
  ret i64 %20
}

; Function Attrs: inlinehint nounwind uwtable
define internal i64 @mi_bitmap_index_bit_in_field(i64 noundef %0) #0 {
  %2 = alloca i64, align 8
  store i64 %0, ptr %2, align 8, !tbaa !7
  %3 = load i64, ptr %2, align 8, !tbaa !7
  %4 = urem i64 %3, 64
  ret i64 %4
}

; Function Attrs: inlinehint nounwind uwtable
define internal i64 @mi_bitmap_index_field(i64 noundef %0) #0 {
  %2 = alloca i64, align 8
  store i64 %0, ptr %2, align 8, !tbaa !7
  %3 = load i64, ptr %2, align 8, !tbaa !7
  %4 = udiv i64 %3, 64
  ret i64 %4
}

; Function Attrs: nounwind uwtable
define hidden zeroext i1 @_mi_bitmap_try_claim(ptr noundef %0, i64 noundef %1, i64 noundef %2, i64 noundef %3) #2 {
  %5 = alloca i1, align 1
  %6 = alloca ptr, align 8
  %7 = alloca i64, align 8
  %8 = alloca i64, align 8
  %9 = alloca i64, align 8
  %10 = alloca i64, align 8
  %11 = alloca i64, align 8
  %12 = alloca i64, align 8
  %13 = alloca i64, align 8
  %14 = alloca i64, align 8
  %15 = alloca i32, align 4
  %16 = alloca i64, align 8
  %17 = alloca i8, align 1
  store ptr %0, ptr %6, align 8, !tbaa !3
  store i64 %1, ptr %7, align 8, !tbaa !7
  store i64 %2, ptr %8, align 8, !tbaa !7
  store i64 %3, ptr %9, align 8, !tbaa !7
  call void @llvm.lifetime.start.p0(i64 8, ptr %10) #5
  %18 = load i64, ptr %9, align 8, !tbaa !7
  %19 = call i64 @mi_bitmap_index_field(i64 noundef %18) #6
  store i64 %19, ptr %10, align 8, !tbaa !7
  call void @llvm.lifetime.start.p0(i64 8, ptr %11) #5
  %20 = load i64, ptr %9, align 8, !tbaa !7
  %21 = call i64 @mi_bitmap_index_bit_in_field(i64 noundef %20) #6
  store i64 %21, ptr %11, align 8, !tbaa !7
  call void @llvm.lifetime.start.p0(i64 8, ptr %12) #5
  %22 = load i64, ptr %8, align 8, !tbaa !7
  %23 = load i64, ptr %11, align 8, !tbaa !7
  %24 = call i64 @mi_bitmap_mask_(i64 noundef %22, i64 noundef %23) #6
  store i64 %24, ptr %12, align 8, !tbaa !7
  call void @llvm.lifetime.start.p0(i64 8, ptr %13) #5
  %25 = load ptr, ptr %6, align 8, !tbaa !3
  %26 = load i64, ptr %10, align 8, !tbaa !7
  %27 = getelementptr inbounds nuw i64, ptr %25, i64 %26
  %28 = load atomic i64, ptr %27 monotonic, align 8
  store i64 %28, ptr %14, align 8
  %29 = load i64, ptr %14, align 8, !tbaa !7
  store i64 %29, ptr %13, align 8, !tbaa !7
  br label %30

30:                                               ; preds = %50, %4
  %31 = load i64, ptr %13, align 8, !tbaa !7
  %32 = load i64, ptr %12, align 8, !tbaa !7
  %33 = and i64 %31, %32
  %34 = icmp ne i64 %33, 0
  br i1 %34, label %35, label %36

35:                                               ; preds = %30
  store i1 false, ptr %5, align 1
  store i32 1, ptr %15, align 4
  br label %56

36:                                               ; preds = %30
  br label %37

37:                                               ; preds = %36
  %38 = load ptr, ptr %6, align 8, !tbaa !3
  %39 = load i64, ptr %10, align 8, !tbaa !7
  %40 = getelementptr inbounds nuw i64, ptr %38, i64 %39
  %41 = load i64, ptr %13, align 8, !tbaa !7
  %42 = load i64, ptr %12, align 8, !tbaa !7
  %43 = or i64 %41, %42
  store i64 %43, ptr %16, align 8, !tbaa !7
  %44 = load i64, ptr %13, align 8
  %45 = load i64, ptr %16, align 8
  %46 = cmpxchg ptr %40, i64 %44, i64 %45 acq_rel acquire, align 8
  %47 = extractvalue { i64, i1 } %46, 0
  %48 = extractvalue { i64, i1 } %46, 1
  br i1 %48, label %50, label %49

49:                                               ; preds = %37
  store i64 %47, ptr %13, align 8
  br label %50

50:                                               ; preds = %49, %37
  %51 = zext i1 %48 to i8
  store i8 %51, ptr %17, align 1, !tbaa !11
  %52 = load i8, ptr %17, align 1, !tbaa !11, !range !13, !noundef !14
  %53 = trunc i8 %52 to i1
  %54 = xor i1 %53, true
  br i1 %54, label %30, label %55, !llvm.loop !21

55:                                               ; preds = %50
  store i1 true, ptr %5, align 1
  store i32 1, ptr %15, align 4
  br label %56

56:                                               ; preds = %55, %35
  call void @llvm.lifetime.end.p0(i64 8, ptr %13) #5
  call void @llvm.lifetime.end.p0(i64 8, ptr %12) #5
  call void @llvm.lifetime.end.p0(i64 8, ptr %11) #5
  call void @llvm.lifetime.end.p0(i64 8, ptr %10) #5
  %57 = load i1, ptr %5, align 1
  ret i1 %57
}