; Function Attrs: nofree norecurse nounwind memory(argmem: readwrite) uwtable
define hidden noundef zeroext i1 @_mi_bitmap_try_claim(ptr noundef captures(none) %0, i64 noundef %1, i64 noundef %2, i64 noundef %3) local_unnamed_addr #1 {
  %5 = lshr i64 %3, 6
  %6 = and i64 %3, 63
  %7 = icmp ugt i64 %2, 63
  br i1 %7, label %mi_bitmap_mask_.exit, label %8

8:                                                ; preds = %4
  %9 = icmp eq i64 %2, 0
  br i1 %9, label %mi_bitmap_mask_.exit, label %10

10:                                               ; preds = %8
  %notmask.i = shl nsw i64 -1, %2
  %11 = xor i64 %notmask.i, -1
  %12 = shl i64 %11, %6
  br label %mi_bitmap_mask_.exit

mi_bitmap_mask_.exit:                             ; preds = %4, %8, %10
  %.0.i = phi i64 [ %12, %10 ], [ -1, %4 ], [ 0, %8 ]
  %13 = getelementptr inbounds nuw i64, ptr %0, i64 %5
  %14 = load atomic i64, ptr %13 monotonic, align 8
  br label %15

15:                                               ; preds = %17, %mi_bitmap_mask_.exit
  %.016 = phi i64 [ %14, %mi_bitmap_mask_.exit ], [ %21, %17 ]
  %16 = and i64 %.016, %.0.i
  %.not = icmp eq i64 %16, 0
  br i1 %.not, label %17, label %22

17:                                               ; preds = %15
  %18 = or i64 %.016, %.0.i
  %19 = cmpxchg ptr %13, i64 %.016, i64 %18 acq_rel acquire, align 8
  %20 = extractvalue { i64, i1 } %19, 1
  %21 = extractvalue { i64, i1 } %19, 0
  br i1 %20, label %22, label %15, !llvm.loop !13

22:                                               ; preds = %17, %15
  ret i1 %.not
}